; Function Attrs: mustprogress nounwind uwtable
define void @_ZN4base28PersistentHistogramAllocatorD2Ev(ptr noundef nonnull align 8 dereferenceable(132) initializes((0, 8)) %0) unnamed_addr #2 align 2 personality ptr @__gxx_personality_v0 {
  store ptr getelementptr inbounds nuw inrange(-16, 16) (i8, ptr @_ZTVN4base28PersistentHistogramAllocatorE, i64 16), ptr %0, align 8, !tbaa !67
  %2 = getelementptr inbounds nuw i8, ptr %0, i64 16
  tail call void @_ZN4base36PersistentSparseHistogramDataManagerD1Ev(ptr noundef nonnull align 8 dereferenceable(112) %2) #21
  %3 = getelementptr inbounds nuw i8, ptr %0, i64 8
  %4 = load ptr, ptr %3, align 8, !tbaa !61
  %.not.i = icmp eq ptr %4, null
  br i1 %.not.i, label %_ZNSt10unique_ptrIN4base25PersistentMemoryAllocatorESt14default_deleteIS1_EED2Ev.exit, label %_ZNKSt14default_deleteIN4base25PersistentMemoryAllocatorEEclEPS1_.exit.i

_ZNKSt14default_deleteIN4base25PersistentMemoryAllocatorEEclEPS1_.exit.i: ; preds = %1
  %5 = load ptr, ptr %4, align 8, !tbaa !67
  %6 = getelementptr inbounds nuw i8, ptr %5, i64 8
  %7 = load ptr, ptr %6, align 8
  tail call void %7(ptr noundef nonnull align 8 dereferenceable(48) %4) #21
  br label %_ZNSt10unique_ptrIN4base25PersistentMemoryAllocatorESt14default_deleteIS1_EED2Ev.exit

_ZNSt10unique_ptrIN4base25PersistentMemoryAllocatorESt14default_deleteIS1_EED2Ev.exit: ; preds = %1, %_ZNKSt14default_deleteIN4base25PersistentMemoryAllocatorEEclEPS1_.exit.i
  store ptr null, ptr %3, align 8, !tbaa !61
  ret void
}